target datalayout = "e-m:e-p270:32:32-p271:32:32-p272:64:64-i64:64-i128:128-f80:128-n8:16:32:64-S128"
target triple = "x86_64-pc-linux-gnu"

%class.cache_sim_t = type <{ ptr, %class.lfsr_t, [4 x i8], ptr, i64, i64, i64, i64, ptr, i64, i64, i64, i64, i64, i64, i64, %"class.std::__cxx11::basic_string", i8, [7 x i8] }>
%class.lfsr_t = type { i32 }
%"class.std::__cxx11::basic_string" = type { %"struct.std::__cxx11::basic_string<char>::_Alloc_hider", i64, %union.anon }
%"struct.std::__cxx11::basic_string<char>::_Alloc_hider" = type { ptr }
%union.anon = type { i64, [8 x i8] }

; Function Attrs: mustprogress nounwind uwtable
define linkonce_odr noundef i32 @_ZN6lfsr_t4nextEv(ptr noundef nonnull align 4 dereferenceable(4) %0) #5 comdat align 2 {
  %2 = alloca ptr, align 8
  store ptr %0, ptr %2, align 8
  %3 = load ptr, ptr %2, align 8
  %4 = getelementptr inbounds %class.lfsr_t, ptr %3, i32 0, i32 0
  %5 = load i32, ptr %4, align 4
  %6 = lshr i32 %5, 1
  %7 = getelementptr inbounds %class.lfsr_t, ptr %3, i32 0, i32 0
  %8 = load i32, ptr %7, align 4
  %9 = and i32 %8, 1
  %10 = sub i32 0, %9
  %11 = and i32 %10, -805306367
  %12 = xor i32 %6, %11
  %13 = getelementptr inbounds %class.lfsr_t, ptr %3, i32 0, i32 0
  store i32 %12, ptr %13, align 4
  ret i32 %12
}

; Function Attrs: mustprogress uwtable
define noundef i64 @_ZN11cache_sim_t9victimizeEm(ptr noundef nonnull align 8 dereferenceable(153) %0, i64 noundef %1) unnamed_addr #4 align 2 {
  %3 = alloca ptr, align 8
  %4 = alloca i64, align 8
  %5 = alloca i64, align 8
  %6 = alloca i64, align 8
  %7 = alloca i64, align 8
  store ptr %0, ptr %3, align 8
  store i64 %1, ptr %4, align 8
  %8 = load ptr, ptr %3, align 8
  %9 = load i64, ptr %4, align 8
  %10 = getelementptr inbounds %class.cache_sim_t, ptr %8, i32 0, i32 7
  %11 = load i64, ptr %10, align 8
  %12 = lshr i64 %9, %11
  %13 = getelementptr inbounds %class.cache_sim_t, ptr %8, i32 0, i32 4
  %14 = load i64, ptr %13, align 8
  %15 = sub i64 %14, 1
  %16 = and i64 %12, %15
  store i64 %16, ptr %5, align 8
  %17 = getelementptr inbounds %class.cache_sim_t, ptr %8, i32 0, i32 1
  %18 = call noundef i32 @_ZN6lfsr_t4nextEv(ptr noundef nonnull align 4 dereferenceable(4) %17)
  %19 = zext i32 %18 to i64
  %20 = getelementptr inbounds %class.cache_sim_t, ptr %8, i32 0, i32 5
  %21 = load i64, ptr %20, align 8
  %22 = urem i64 %19, %21
  store i64 %22, ptr %6, align 8
  %23 = getelementptr inbounds %class.cache_sim_t, ptr %8, i32 0, i32 8
  %24 = load ptr, ptr %23, align 8
  %25 = load i64, ptr %5, align 8
  %26 = getelementptr inbounds %class.cache_sim_t, ptr %8, i32 0, i32 5
  %27 = load i64, ptr %26, align 8
  %28 = mul i64 %25, %27
  %29 = load i64, ptr %6, align 8
  %30 = add i64 %28, %29
  %31 = getelementptr inbounds i64, ptr %24, i64 %30
  %32 = load i64, ptr %31, align 8
  store i64 %32, ptr %7, align 8
  %33 = load i64, ptr %4, align 8
  %34 = getelementptr inbounds %class.cache_sim_t, ptr %8, i32 0, i32 7
  %35 = load i64, ptr %34, align 8
  %36 = lshr i64 %33, %35
  %37 = or i64 %36, -9223372036854775808
  %38 = getelementptr inbounds %class.cache_sim_t, ptr %8, i32 0, i32 8
  %39 = load ptr, ptr %38, align 8
  %40 = load i64, ptr %5, align 8
  %41 = getelementptr inbounds %class.cache_sim_t, ptr %8, i32 0, i32 5
  %42 = load i64, ptr %41, align 8
  %43 = mul i64 %40, %42
  %44 = load i64, ptr %6, align 8
  %45 = add i64 %43, %44
  %46 = getelementptr inbounds i64, ptr %39, i64 %45
  store i64 %37, ptr %46, align 8
  %47 = load i64, ptr %7, align 8
  ret i64 %47
}