; Function Attrs: mustprogress nofree norecurse nosync nounwind willreturn memory(readwrite, inaccessiblemem: none) uwtable
define noundef i64 @_ZN11cache_sim_t9victimizeEm(ptr nocapture noundef nonnull align 8 dereferenceable(153) %0, i64 noundef %1) unnamed_addr #13 align 2 {
  %3 = getelementptr inbounds i8, ptr %0, i64 48
  %4 = load i64, ptr %3, align 8
  %5 = lshr i64 %1, %4
  %6 = getelementptr inbounds i8, ptr %0, i64 24
  %7 = load i64, ptr %6, align 8
  %8 = add i64 %7, -1
  %9 = and i64 %8, %5
  %10 = getelementptr inbounds i8, ptr %0, i64 8
  %11 = load i32, ptr %10, align 8
  %12 = lshr i32 %11, 1
  %13 = and i32 %11, 1
  %14 = icmp eq i32 %13, 0
  %15 = select i1 %14, i32 0, i32 -805306367
  %16 = xor i32 %15, %12
  store i32 %16, ptr %10, align 8
  %17 = zext i32 %16 to i64
  %18 = getelementptr inbounds i8, ptr %0, i64 32
  %19 = load i64, ptr %18, align 8
  %20 = urem i64 %17, %19
  %21 = getelementptr inbounds i8, ptr %0, i64 56
  %22 = load ptr, ptr %21, align 8
  %23 = mul i64 %19, %9
  %24 = getelementptr i64, ptr %22, i64 %23
  %25 = getelementptr i64, ptr %24, i64 %20
  %26 = load i64, ptr %25, align 8
  %27 = or i64 %5, -9223372036854775808
  store i64 %27, ptr %25, align 8
  ret i64 %26
}